; Function Attrs: mustprogress nounwind uwtable
define internal void @_ZN12_GLOBAL__N_115cmQtAutoMocUicTD2Ev(ptr noundef nonnull align 8 dereferenceable(3064) %0) unnamed_addr #5 align 2 {
  store ptr getelementptr inbounds ({ [6 x ptr] }, ptr @_ZTVN12_GLOBAL__N_115cmQtAutoMocUicTE, i64 0, i32 0, i64 2), ptr %0, align 8
  %2 = getelementptr inbounds i8, ptr %0, i64 3000
  tail call void @_ZN12cmWorkerPoolD1Ev(ptr noundef nonnull align 8 dereferenceable(24) %2) #23
  %3 = getelementptr inbounds i8, ptr %0, i64 2960
  tail call void @_ZNSt7__cxx1112basic_stringIcSt11char_traitsIcESaIcEED1Ev(ptr noundef nonnull align 8 dereferenceable(32) %3) #23
  %4 = getelementptr inbounds i8, ptr %0, i64 2928
  tail call void @_ZNSt7__cxx1112basic_stringIcSt11char_traitsIcESaIcEED1Ev(ptr noundef nonnull align 8 dereferenceable(32) %4) #23
  %5 = getelementptr inbounds i8, ptr %0, i64 2896
  tail call void @_ZNSt7__cxx1112basic_stringIcSt11char_traitsIcESaIcEED1Ev(ptr noundef nonnull align 8 dereferenceable(32) %5) #23
  %6 = getelementptr inbounds i8, ptr %0, i64 2744
  tail call fastcc void @_ZN12_GLOBAL__N_115cmQtAutoMocUicT8UicEvalTD2Ev(ptr noundef nonnull align 8 dereferenceable(152) %6) #23
  %7 = getelementptr inbounds i8, ptr %0, i64 1976
  tail call fastcc void @_ZN12_GLOBAL__N_115cmQtAutoMocUicT12UicSettingsTD2Ev(ptr noundef nonnull align 8 dereferenceable(768) %7) #23
  %8 = getelementptr inbounds i8, ptr %0, i64 1688
  tail call fastcc void @_ZN12_GLOBAL__N_115cmQtAutoMocUicT8MocEvalTD2Ev(ptr noundef nonnull align 8 dereferenceable(288) %8) #23
  %9 = getelementptr inbounds i8, ptr %0, i64 768
  tail call fastcc void @_ZN12_GLOBAL__N_115cmQtAutoMocUicT12MocSettingsTD2Ev(ptr noundef nonnull align 8 dereferenceable(920) %9) #23
  %10 = getelementptr inbounds i8, ptr %0, i64 600
  tail call fastcc void @_ZN12_GLOBAL__N_115cmQtAutoMocUicT9BaseEvalTD2Ev(ptr noundef nonnull align 8 dereferenceable(168) %10) #23
  %11 = getelementptr inbounds i8, ptr %0, i64 328
  tail call fastcc void @_ZN12_GLOBAL__N_115cmQtAutoMocUicT13BaseSettingsTD2Ev(ptr noundef nonnull align 8 dereferenceable(272) %11) #23
  tail call void @_ZN17cmQtAutoGeneratorD2Ev(ptr noundef nonnull align 8 dereferenceable(328) %0) #23
  ret void
}